Certificate:
    Data:
        Version: 3 (0x2)
        Serial Number: 1 (0x1)
        Signature Algorithm: sha256WithRSAEncryption
        Issuer: C=IE, ST=Dublin, L=Dublin, O=TCD, OU=SCSS, CN=root
        Validity
            Not Before: Nov 26 03:35:29 2021 GMT
            Not After : Nov 26 03:35:29 2022 GMT
        Subject: C=IE, ST=Dublin, O=TCD, OU=SCSS, CN=rasp-*.scss.tcd.ie
        Subject Public Key Info:
            Public Key Algorithm: rsaEncryption
                RSA Public-Key: (2048 bit)
                Modulus:
                    00:bd:ec:57:b9:56:93:06:7f:e2:c8:e8:1d:88:d4:
                    c5:6d:89:dc:1b:f0:5e:47:aa:05:b4:83:58:c4:d5:
                    4b:8b:c5:96:a0:9b:dd:38:99:60:33:f6:8b:60:76:
                    b1:51:14:a0:59:0c:1f:7a:34:cf:cd:20:db:ce:e7:
                    8e:9a:85:2b:23:d3:05:9b:75:70:88:d4:28:b3:05:
                    10:ff:63:76:d1:5e:9c:73:b1:ec:e3:da:52:47:76:
                    55:a5:3a:53:2c:c6:1e:d0:54:ed:da:c4:fc:0b:cf:
                    47:b4:a4:8f:d7:b4:be:cf:ac:c5:02:13:3c:03:b7:
                    01:a4:7c:b7:a3:b6:b6:f7:77:bd:1e:b2:da:ad:2f:
                    ea:fe:12:59:d2:de:11:89:2f:38:28:14:c7:a8:e9:
                    9c:4d:c0:9d:a0:4e:c3:0b:e8:48:51:b5:7f:db:2a:
                    4c:72:2b:89:4b:fa:ea:71:51:29:43:51:3b:ab:71:
                    3d:14:91:62:f8:cd:a9:17:69:10:05:54:e6:26:95:
                    07:09:6d:6c:70:1c:9f:12:c7:69:3a:81:9f:a4:66:
                    1b:7e:e4:be:0d:64:4d:36:cb:d0:fb:b0:75:8a:94:
                    d1:96:98:61:bb:d4:a5:cb:a9:1a:f4:ec:f3:14:ba:
                    6b:07:34:b8:f8:2a:6d:9d:39:3d:4c:6c:78:48:9d:
                    ef:33
                Exponent: 65537 (0x10001)
        X509v3 extensions:
            X509v3 Subject Alternative Name: 
                DNS:127.0.*.*, DNS:*.scss.tcd.ie
    Signature Algorithm: sha256WithRSAEncryption
         08:6e:c8:1c:1e:b0:ab:99:b1:99:24:f9:71:03:ca:a1:b1:60:
         b5:41:ee:ba:a3:a2:aa:e7:0c:e4:b8:d2:1a:2e:62:6f:c1:dd:
         0f:33:f3:1f:75:1c:5f:66:0b:60:63:e2:bb:9f:16:8c:4d:b7:
         c5:75:48:a0:2b:64:9d:1f:67:83:51:10:b4:bc:88:d9:88:9a:
         47:e2:d2:f1:df:f9:6a:57:a3:48:07:d0:2f:aa:4a:64:23:aa:
         ba:f4:f5:5a:5f:92:24:af:e3:8d:27:db:6d:7c:70:57:05:5a:
         ef:78:0b:a7:14:d9:03:07:e3:45:37:09:d4:96:94:77:63:84:
         27:a2
-----BEGIN CERTIFICATE-----
MIIC1DCCAj2gAwIBAgIBATANBgkqhkiG9w0BAQsFADBbMQswCQYDVQQGEwJJRTEP
MA0GA1UECAwGRHVibGluMQ8wDQYDVQQHDAZEdWJsaW4xDDAKBgNVBAoMA1RDRDEN
MAsGA1UECwwEU0NTUzENMAsGA1UEAwwEcm9vdDAeFw0yMTExMjYwMzM1MjlaFw0y
MjExMjYwMzM1MjlaMFgxCzAJBgNVBAYTAklFMQ8wDQYDVQQIDAZEdWJsaW4xDDAK
BgNVBAoMA1RDRDENMAsGA1UECwwEU0NTUzEbMBkGA1UEAwwScmFzcC0qLnNjc3Mu
dGNkLmllMIIBIjANBgkqhkiG9w0BAQEFAAOCAQ8AMIIBCgKCAQEAvexXuVaTBn/i
yOgdiNTFbYncG/BeR6oFtINYxNVLi8WWoJvdOJlgM/aLYHaxURSgWQwfejTPzSDb
zueOmoUrI9MFm3VwiNQoswUQ/2N20V6cc7Hs49pSR3ZVpTpTLMYe0FTt2sT8C89H
tKSP17S+z6zFAhM8A7cBpHy3o7a293e9HrLarS/q/hJZ0t4RiS84KBTHqOmcTcCd
oE7DC+hIUbV/2ypMciuJS/rqcVEpQ1E7q3E9FJFi+M2pF2kQBVTmJpUHCW1scByf
EsdpOoGfpGYbfuS+DWRNNsvQ+7B1ipTRlphhu9Sly6ka9OzzFLprBzS4+CptnTk9
TGx4SJ3vMwIDAQABoycwJTAjBgNVHREEHDAaggkxMjcuMC4qLiqCDSouc2Nzcy50
Y2QuaWUwDQYJKoZIhvcNAQELBQADgYEACG7IHB6wq5mxmST5cQPKobFgtUHuuqOi
qucM5LjSGi5ib8HdDzPzH3UcX2YLYGPiu58WjE23xXVIoCtknR9ng1EQtLyI2Yia
R+LS8d/5alejSAfQL6pKZCOquvT1Wl+SJK/jjSfbbXxwVwVa73gLpxTZAwfjRTcJ
1JaUd2OEJ6I=
-----END CERTIFICATE-----
