Certificate:
    Data:
        Version: 3 (0x2)
        Serial Number: 2 (0x2)
        Signature Algorithm: sha256WithRSAEncryption
        Issuer: C=IE, ST=Dublin, L=Dublin, O=TCD, OU=SCSS, CN=root
        Validity
            Not Before: Nov 26 03:35:31 2021 GMT
            Not After : Nov 26 03:35:31 2022 GMT
        Subject: C=IE, ST=Dublin, O=TCD, OU=SCSS, CN=127.*.*.*
        Subject Public Key Info:
            Public Key Algorithm: rsaEncryption
                RSA Public-Key: (2048 bit)
                Modulus:
                    00:a4:05:87:d4:e5:fd:5b:8d:45:9e:44:af:5f:4f:
                    75:c1:24:f9:76:38:4d:94:1f:64:82:e3:b6:df:49:
                    24:72:13:48:39:17:59:fc:22:cb:a8:5f:11:9e:2e:
                    54:84:02:d3:91:31:4e:fe:c1:ca:4e:8d:29:e9:c5:
                    ba:dd:3d:ce:d4:d7:d6:2d:7d:98:24:1c:f6:93:98:
                    18:64:c4:6b:aa:94:67:00:23:34:2b:22:ca:66:3b:
                    fd:ee:eb:52:23:26:d7:26:4d:42:d3:97:42:b2:52:
                    02:88:cf:51:19:74:c2:7c:5a:fa:23:c6:95:a1:06:
                    04:4a:aa:c6:64:c7:50:1b:00:5a:9f:30:49:dd:0c:
                    d8:19:56:ac:63:a4:59:50:cd:2c:89:5f:68:64:7a:
                    53:f0:72:8c:62:b5:70:8d:37:0a:2f:03:39:2a:e3:
                    59:b0:05:40:36:82:3a:ee:50:a6:4a:66:70:fb:f9:
                    f2:86:74:73:d3:2a:62:5d:6f:03:77:5f:2f:b9:f6:
                    88:64:e4:35:d1:7a:e5:1b:66:42:a1:fa:aa:cb:43:
                    8a:29:12:e0:7d:de:da:d2:17:ab:9e:63:3c:fc:bf:
                    fc:50:1b:df:b4:07:35:36:2c:82:cb:bf:ba:51:1b:
                    39:71:9e:ee:51:53:5b:71:cc:66:64:c0:11:f6:4d:
                    1e:1f
                Exponent: 65537 (0x10001)
        X509v3 extensions:
            X509v3 Subject Alternative Name: 
                DNS:127.0.*.*, DNS:*.scss.tcd.ie
    Signature Algorithm: sha256WithRSAEncryption
         b1:90:d2:d2:4b:af:d3:ee:e2:ed:8b:97:94:3b:9d:f7:cc:01:
         3e:08:14:b0:f4:9a:09:08:79:60:81:34:2f:ab:c7:ac:7f:ca:
         0e:a1:dd:00:41:6a:52:cd:e8:94:88:02:d6:4f:54:e7:fe:d7:
         ef:82:c7:d7:6a:46:40:67:73:d4:51:a2:13:4d:bb:5e:27:77:
         79:80:c6:5c:f5:15:17:e4:cf:d2:2e:d8:85:34:1f:3a:9e:52:
         41:cc:f3:7b:a6:ef:02:8c:dd:86:63:2a:d5:da:b0:3b:73:3b:
         c8:2f:9e:a0:ab:b9:b7:bb:85:50:d0:7d:d2:3b:40:96:2d:e1:
         62:55
-----BEGIN CERTIFICATE-----
MIICyzCCAjSgAwIBAgIBAjANBgkqhkiG9w0BAQsFADBbMQswCQYDVQQGEwJJRTEP
MA0GA1UECAwGRHVibGluMQ8wDQYDVQQHDAZEdWJsaW4xDDAKBgNVBAoMA1RDRDEN
MAsGA1UECwwEU0NTUzENMAsGA1UEAwwEcm9vdDAeFw0yMTExMjYwMzM1MzFaFw0y
MjExMjYwMzM1MzFaME8xCzAJBgNVBAYTAklFMQ8wDQYDVQQIDAZEdWJsaW4xDDAK
BgNVBAoMA1RDRDENMAsGA1UECwwEU0NTUzESMBAGA1UEAwwJMTI3LiouKi4qMIIB
IjANBgkqhkiG9w0BAQEFAAOCAQ8AMIIBCgKCAQEApAWH1OX9W41FnkSvX091wST5
djhNlB9kguO230kkchNIORdZ/CLLqF8Rni5UhALTkTFO/sHKTo0p6cW63T3O1NfW
LX2YJBz2k5gYZMRrqpRnACM0KyLKZjv97utSIybXJk1C05dCslICiM9RGXTCfFr6
I8aVoQYESqrGZMdQGwBanzBJ3QzYGVasY6RZUM0siV9oZHpT8HKMYrVwjTcKLwM5
KuNZsAVANoI67lCmSmZw+/nyhnRz0ypiXW8Dd18vufaIZOQ10XrlG2ZCofqqy0OK
KRLgfd7a0hernmM8/L/8UBvftAc1NiyCy7+6URs5cZ7uUVNbccxmZMAR9k0eHwID
AQABoycwJTAjBgNVHREEHDAaggkxMjcuMC4qLiqCDSouc2Nzcy50Y2QuaWUwDQYJ
KoZIhvcNAQELBQADgYEAsZDS0kuv0+7i7YuXlDud98wBPggUsPSaCQh5YIE0L6vH
rH/KDqHdAEFqUs3olIgC1k9U5/7X74LH12pGQGdz1FGiE027Xid3eYDGXPUVF+TP
0i7YhTQfOp5SQczze6bvAozdhmMq1dqwO3M7yC+eoKu5t7uFUNB90jtAli3hYlU=
-----END CERTIFICATE-----
