Certificate:
    Data:
        Version: 3 (0x2)
        Serial Number: 3 (0x3)
        Signature Algorithm: sha256WithRSAEncryption
        Issuer: C=IE, ST=Dublin, L=Dublin, O=TCD, OU=SCSS, CN=root
        Validity
            Not Before: Nov 26 03:35:32 2021 GMT
            Not After : Nov 26 03:35:32 2022 GMT
        Subject: C=IE, ST=Dublin, O=TCD, OU=SCSS, CN=CLIENT
        Subject Public Key Info:
            Public Key Algorithm: rsaEncryption
                RSA Public-Key: (2048 bit)
                Modulus:
                    00:cb:c5:79:93:e3:2f:9b:89:5f:59:9f:2d:23:7a:
                    92:54:f7:34:d4:da:ad:7d:5a:ca:7b:8d:be:9d:40:
                    29:cc:72:28:ec:58:9d:1e:2e:41:6c:a5:70:85:2f:
                    b8:3a:43:7f:92:78:a4:f5:64:37:b8:0d:1a:b2:c0:
                    1c:23:d3:a7:31:8b:a8:65:d7:e4:ff:0e:ea:16:94:
                    dc:4d:86:3d:91:b5:05:87:b1:af:a9:94:bf:73:f6:
                    84:30:df:42:f5:a2:ee:bb:ff:06:0e:d0:69:b1:04:
                    f9:dc:5e:ea:4e:cd:62:e2:dd:ad:06:27:f3:3d:5c:
                    01:71:34:60:ff:fc:d5:56:c4:5e:f6:1c:af:dd:95:
                    89:52:94:90:18:17:11:5b:c1:ca:2b:05:13:88:c6:
                    cf:4c:ec:a8:af:fc:9e:29:c1:05:6c:15:2f:e3:6d:
                    61:b4:a4:89:7f:f3:d6:fe:e0:96:e7:7d:66:d0:40:
                    ed:37:4e:31:3a:d0:4e:6b:54:19:73:a3:46:bf:f9:
                    91:3a:12:99:d7:f9:65:2e:45:6f:5e:ca:7d:1a:1d:
                    5d:7f:72:52:d3:f4:c9:15:23:ec:50:89:c8:ba:f6:
                    d6:d0:fe:c7:cc:32:75:ef:66:a8:50:e2:10:bf:a8:
                    fb:7b:69:68:41:64:87:15:97:fa:02:56:22:07:fb:
                    19:9f
                Exponent: 65537 (0x10001)
        X509v3 extensions:
            X509v3 Subject Alternative Name: 
                DNS:127.0.*.*, DNS:*.scss.tcd.ie
    Signature Algorithm: sha256WithRSAEncryption
         83:b5:e4:2d:e0:29:69:a4:c9:34:8a:fd:0b:23:b7:6a:8b:d1:
         af:d2:58:74:13:05:5a:8f:aa:89:4f:3b:33:c5:dd:41:57:bc:
         a9:4c:15:15:f8:a0:23:f3:91:9f:0f:ae:32:59:93:c3:17:77:
         a7:9a:a1:92:ff:38:14:c9:6c:54:02:c8:c0:dc:39:11:59:3c:
         e3:42:c2:d3:23:10:25:e4:e4:0a:f4:ed:8e:64:8d:73:b5:2c:
         c8:91:77:76:7e:dd:2f:63:74:85:dc:f9:a2:77:f7:05:b3:53:
         f2:42:86:89:db:da:fc:f6:09:ba:ae:00:ee:75:b2:e8:01:56:
         29:c5
-----BEGIN CERTIFICATE-----
MIICyDCCAjGgAwIBAgIBAzANBgkqhkiG9w0BAQsFADBbMQswCQYDVQQGEwJJRTEP
MA0GA1UECAwGRHVibGluMQ8wDQYDVQQHDAZEdWJsaW4xDDAKBgNVBAoMA1RDRDEN
MAsGA1UECwwEU0NTUzENMAsGA1UEAwwEcm9vdDAeFw0yMTExMjYwMzM1MzJaFw0y
MjExMjYwMzM1MzJaMEwxCzAJBgNVBAYTAklFMQ8wDQYDVQQIDAZEdWJsaW4xDDAK
BgNVBAoMA1RDRDENMAsGA1UECwwEU0NTUzEPMA0GA1UEAwwGQ0xJRU5UMIIBIjAN
BgkqhkiG9w0BAQEFAAOCAQ8AMIIBCgKCAQEAy8V5k+Mvm4lfWZ8tI3qSVPc01Nqt
fVrKe42+nUApzHIo7FidHi5BbKVwhS+4OkN/knik9WQ3uA0assAcI9OnMYuoZdfk
/w7qFpTcTYY9kbUFh7GvqZS/c/aEMN9C9aLuu/8GDtBpsQT53F7qTs1i4t2tBifz
PVwBcTRg//zVVsRe9hyv3ZWJUpSQGBcRW8HKKwUTiMbPTOyor/yeKcEFbBUv421h
tKSJf/PW/uCW531m0EDtN04xOtBOa1QZc6NGv/mROhKZ1/llLkVvXsp9Gh1df3JS
0/TJFSPsUInIuvbW0P7HzDJ172aoUOIQv6j7e2loQWSHFZf6AlYiB/sZnwIDAQAB
oycwJTAjBgNVHREEHDAaggkxMjcuMC4qLiqCDSouc2Nzcy50Y2QuaWUwDQYJKoZI
hvcNAQELBQADgYEAg7XkLeApaaTJNIr9CyO3aovRr9JYdBMFWo+qiU87M8XdQVe8
qUwVFfigI/ORnw+uMlmTwxd3p5qhkv84FMlsVALIwNw5EVk840LC0yMQJeTkCvTt
jmSNc7UsyJF3dn7dL2N0hdz5onf3BbNT8kKGidva/PYJuq4A7nWy6AFWKcU=
-----END CERTIFICATE-----
